(icommand_store_lib
CommandStore
p1
(dp2
S'_command_dict'
p3
(dp4
S'./gradlew realtime:build'
p5
(icommand_store_lib
Command
p6
(dp7
S'_context_before'
p8
c__builtin__
set
p9
((ltRp10
sS'_primary_command'
p11
S'./gradlew'
p12
sS'_manual_comments'
p13
S'Place any comments here.'
p14
sS'_context_after'
p15
g9
((ltRp16
sS'_count_seen'
p17
I1
sS'_command_str'
p18
g5
sbsS'grep -rn -I "DynamicPickupsResponse*" *'
p19
(icommand_store_lib
Command
p20
(dp21
g8
g9
((ltRp22
sg11
S'grep'
p23
sg13
g14
sg15
g9
((ltRp24
sg17
I1
sg18
g19
sbsS'mkdir code'
p25
(icommand_store_lib
Command
p26
(dp27
g8
g9
((ltRp28
sg11
S'mkdir'
p29
sg13
g14
sg15
g9
((ltRp30
sg17
I1
sg18
g25
sbsS'grep -rn "@Shape'
p31
(icommand_store_lib
Command
p32
(dp33
g8
g9
((ltRp34
sg11
S'grep'
p35
sg13
g14
sg15
g9
((ltRp36
sg17
I1
sg18
g31
sbsS'cd realtime/src/main/java/com/ubercab/rider/realtime/'
p37
(icommand_store_lib
Command
p38
(dp39
g8
g9
((ltRp40
sg11
S'cd'
p41
sg13
g14
sg15
g9
((ltRp42
sg17
I1
sg18
g37
sbsS'mkdir save'
p43
(icommand_store_lib
Command
p44
(dp45
g8
g9
((ltRp46
sg11
S'mkdir'
p47
sg13
g14
sg15
g9
((ltRp48
sg17
I1
sg18
g43
sbsS'cl'
p49
(icommand_store_lib
Command
p50
(dp51
g8
g9
((ltRp52
sg11
g49
sg13
g14
sg15
g9
((ltRp53
sg17
I1
sg18
g49
sbsS'cd java-dave/'
p54
(icommand_store_lib
Command
p55
(dp56
g8
g9
((ltRp57
sg11
S'cd'
p58
sg13
g14
sg15
g9
((ltRp59
sg17
I2
sg18
g54
sbsS'open htmlcov/index.html'
p60
(icommand_store_lib
Command
p61
(dp62
g8
g9
((ltRp63
sg11
S'open'
p64
sg13
g14
sg15
g9
((ltRp65
sg17
I1
sg18
g60
sbsS'rm setuptools-18.5.zip'
p66
(icommand_store_lib
Command
p67
(dp68
g8
g9
((ltRp69
sg11
S'rm'
p70
sg13
g14
sg15
g9
((ltRp71
sg17
I1
sg18
g66
sbsS'mv ~/Minzies/python/ .'
p72
(icommand_store_lib
Command
p73
(dp74
g8
g9
((ltRp75
sg11
S'mv'
p76
sg13
g14
sg15
g9
((ltRp77
sg17
I1
sg18
g72
sbsS'./remember_unittest.py'
p78
(icommand_store_lib
Command
p79
(dp80
g8
g9
((ltRp81
sg11
g78
sg13
g14
sg15
g9
((ltRp82
sg17
I1
sg18
g78
sbsS'mv ~/Work/repositories/java-dave/dave-compiler/src/test/java/com/ubercab/dave/compiler/testfiles/ ~/Temp/save/'
p83
(icommand_store_lib
Command
p84
(dp85
g8
g9
((ltRp86
sg11
S'mv'
p87
sg13
g14
sg15
g9
((ltRp88
sg17
I1
sg18
g83
sbsS'mkdir python'
p89
(icommand_store_lib
Command
p90
(dp91
g8
g9
((ltRp92
sg11
S'mkdir'
p93
sg13
g14
sg15
g9
((ltRp94
sg17
I1
sg18
g89
sbsS'./generateStore.py ~/.bash_history'
p95
(icommand_store_lib
Command
p96
(dp97
g8
g9
((ltRp98
sg11
S'./generateStore.py'
p99
sg13
g14
sg15
g9
((ltRp100
sg17
I1
sg18
g95
sbsS'./gradlew dave-compiler:uploadArchives'
p101
(icommand_store_lib
Command
p102
(dp103
g8
g9
((ltRp104
sg11
S'./gradlew'
p105
sg13
g14
sg15
g9
((ltRp106
sg17
I3
sg18
g101
sbsS'pip'
p107
(icommand_store_lib
Command
p108
(dp109
g8
g9
((ltRp110
sg11
g107
sg13
g14
sg15
g9
((ltRp111
sg17
I1
sg18
g107
sbsS'remember gito'
p112
(icommand_store_lib
Command
p113
(dp114
g8
g9
((ltRp115
sg11
S'remember'
p116
sg13
g14
sg15
g9
((ltRp117
sg17
I2
sg18
g112
sbsS'find . -name PickupLocation.java'
p118
(icommand_store_lib
Command
p119
(dp120
g8
g9
((ltRp121
sg11
S'find'
p122
sg13
g14
sg15
g9
((ltRp123
sg17
I1
sg18
g118
sbsS'cd remember_logs/'
p124
(icommand_store_lib
Command
p125
(dp126
g8
g9
((ltRp127
sg11
S'cd'
p128
sg13
g14
sg15
g9
((ltRp129
sg17
I2
sg18
g124
sbsS'cd code/'
p130
(icommand_store_lib
Command
p131
(dp132
g8
g9
((ltRp133
sg11
S'cd'
p134
sg13
g14
sg15
g9
((ltRp135
sg17
I2
sg18
g130
sbsS'./generateStore.py'
p136
(icommand_store_lib
Command
p137
(dp138
g8
g9
((ltRp139
sg11
g136
sg13
g14
sg15
g9
((ltRp140
sg17
I3
sg18
g136
sbsS'find . -name PickupLocation*.java'
p141
(icommand_store_lib
Command
p142
(dp143
g8
g9
((ltRp144
sg11
S'find'
p145
sg13
g14
sg15
g9
((ltRp146
sg17
I1
sg18
g141
sbsS'cd logging/'
p147
(icommand_store_lib
Command
p148
(dp149
g8
g9
((ltRp150
sg11
S'cd'
p151
sg13
g14
sg15
g9
((ltRp152
sg17
I2
sg18
g147
sbsS'grep -rn -I "@Shape" *'
p153
(icommand_store_lib
Command
p154
(dp155
g8
g9
((ltRp156
sg11
S'grep'
p157
sg13
g14
sg15
g9
((ltRp158
sg17
I2
sg18
g153
sbsS'cd java-'
p159
(icommand_store_lib
Command
p160
(dp161
g8
g9
((ltRp162
sg11
S'cd'
p163
sg13
g14
sg15
g9
((ltRp164
sg17
I1
sg18
g159
sbsS'sudo pip install coverage'
p165
(icommand_store_lib
Command
p166
(dp167
g8
g9
((ltRp168
sg11
S'sudo'
p169
sg13
g14
sg15
g9
((ltRp170
sg17
I1
sg18
g165
sbsS'./gradlew realtime:assemble'
p171
(icommand_store_lib
Command
p172
(dp173
g8
g9
((ltRp174
sg11
S'./gradlew'
p175
sg13
g14
sg15
g9
((ltRp176
sg17
I1
sg18
g171
sbsS'rmdir python/'
p177
(icommand_store_lib
Command
p178
(dp179
g8
g9
((ltRp180
sg11
S'rmdir'
p181
sg13
g14
sg15
g9
((ltRp182
sg17
I1
sg18
g177
sbsS'rm ValidatorTemplate.java'
p183
(icommand_store_lib
Command
p184
(dp185
g8
g9
((ltRp186
sg11
S'rm'
p187
sg13
g14
sg15
g9
((ltRp188
sg17
I1
sg18
g183
sbsS'cd java-realtime/'
p189
(icommand_store_lib
Command
p190
(dp191
g8
g9
((ltRp192
sg11
S'cd'
p193
sg13
g14
sg15
g9
((ltRp194
sg17
I2
sg18
g189
sbsS'rider'
p195
(icommand_store_lib
Command
p196
(dp197
g8
g9
((ltRp198
sg11
g195
sg13
g14
sg15
g9
((ltRp199
sg17
I4
sg18
g195
sbsS'vim ~/.bash_profile'
p200
(icommand_store_lib
Command
p201
(dp202
g8
g9
((ltRp203
sg11
S'vim'
p204
sg13
g14
sg15
g9
((ltRp205
sg17
I2
sg18
g200
sbsS'find . -name DynamicPickupsResponse*.java'
p206
(icommand_store_lib
Command
p207
(dp208
g8
g9
((ltRp209
sg11
S'find'
p210
sg13
g14
sg15
g9
((ltRp211
sg17
I3
sg18
g206
sbsS'cd Temp/'
p212
(icommand_store_lib
Command
p213
(dp214
g8
g9
((ltRp215
sg11
S'cd'
p216
sg13
g14
sg15
g9
((ltRp217
sg17
I2
sg18
g212
sbsS'rm rider_events.csv'
p218
(icommand_store_lib
Command
p219
(dp220
g8
g9
((ltRp221
sg11
S'rm'
p222
sg13
g14
sg15
g9
((ltRp223
sg17
I1
sg18
g218
sbsS'remember foo'
p224
(icommand_store_lib
Command
p225
(dp226
g8
g9
((ltRp227
sg11
S'remember'
p228
sg13
g14
sg15
g9
((ltRp229
sg17
I1
sg18
g224
sbsS'python'
p230
(icommand_store_lib
Command
p231
(dp232
g8
g9
((ltRp233
sg11
g230
sg13
g14
sg15
g9
((ltRp234
sg17
I1
sg18
g230
sbsS'mv ~/Work/repositories/java-dave/dave-compiler/src/test/java/com/ubercab/dave/compiler/RaveProcessorTest.java ~/Temp/save/'
p235
(icommand_store_lib
Command
p236
(dp237
g8
g9
((ltRp238
sg11
S'mv'
p239
sg13
g14
sg15
g9
((ltRp240
sg17
I1
sg18
g235
sbsS'cd model/'
p241
(icommand_store_lib
Command
p242
(dp243
g8
g9
((ltRp244
sg11
S'cd'
p245
sg13
g14
sg15
g9
((ltRp246
sg17
I1
sg18
g241
sbsS'coverage remember_unittest.py'
p247
(icommand_store_lib
Command
p248
(dp249
g8
g9
((ltRp250
sg11
S'coverage'
p251
sg13
g14
sg15
g9
((ltRp252
sg17
I1
sg18
g247
sbsS'coverage report'
p253
(icommand_store_lib
Command
p254
(dp255
g8
g9
((ltRp256
sg11
S'coverage'
p257
sg13
g14
sg15
g9
((ltRp258
sg17
I1
sg18
g253
sbsS'./gradlew assemble'
p259
(icommand_store_lib
Command
p260
(dp261
g8
g9
((ltRp262
sg11
S'./gradlew'
p263
sg13
g14
sg15
g9
((ltRp264
sg17
I4
sg18
g259
sbsS'cd ~/Dropbox/'
p265
(icommand_store_lib
Command
p266
(dp267
g8
g9
((ltRp268
sg11
S'cd'
p269
sg13
g14
sg15
g9
((ltRp270
sg17
I1
sg18
g265
sbsS'cd python/'
p271
(icommand_store_lib
Command
p272
(dp273
g8
g9
((ltRp274
sg11
S'cd'
p275
sg13
g14
sg15
g9
((ltRp276
sg17
I3
sg18
g271
sbsS'git clone gitolite@code.uber.internal:mobile/java-realtime'
p277
(icommand_store_lib
Command
p278
(dp279
g8
g9
((ltRp280
sg11
S'git'
p281
sg13
g14
sg15
g9
((ltRp282
sg17
I1
sg18
g277
sbsS'grep -rn "@Shape" *'
p283
(icommand_store_lib
Command
p284
(dp285
g8
g9
((ltRp286
sg11
S'grep'
p287
sg13
g14
sg15
g9
((ltRp288
sg17
I1
sg18
g283
sbsS'mv command_storage.txt ~/Minzies/logging/remember_logs/'
p289
(icommand_store_lib
Command
p290
(dp291
g8
g9
((ltRp292
sg11
S'mv'
p293
sg13
g14
sg15
g9
((ltRp294
sg17
I1
sg18
g289
sbsS'cd ..'
p295
(icommand_store_lib
Command
p296
(dp297
g8
g9
((ltRp298
sg11
S'cd'
p299
sg13
g14
sg15
g9
((ltRp300
sg17
I21
sg18
g295
sbsS'mkdir remember_logs'
p301
(icommand_store_lib
Command
p302
(dp303
g8
g9
((ltRp304
sg11
S'mkdir'
p305
sg13
g14
sg15
g9
((ltRp306
sg17
I1
sg18
g301
sbsS'cd Save/'
p307
(icommand_store_lib
Command
p308
(dp309
g8
g9
((ltRp310
sg11
S'cd'
p311
sg13
g14
sg15
g9
((ltRp312
sg17
I1
sg18
g307
sbsS'pip install coverage'
p313
(icommand_store_lib
Command
p314
(dp315
g8
g9
((ltRp316
sg11
S'pip'
p317
sg13
g14
sg15
g9
((ltRp318
sg17
I1
sg18
g313
sbsS'mv pickle_file.pickle ~/Minzies/logging/remember_logs/'
p319
(icommand_store_lib
Command
p320
(dp321
g8
g9
((ltRp322
sg11
S'mv'
p323
sg13
g14
sg15
g9
((ltRp324
sg17
I1
sg18
g319
sbsS'grep -rn Minzies *'
p325
(icommand_store_lib
Command
p326
(dp327
g8
g9
((ltRp328
sg11
S'grep'
p329
sg13
g14
sg15
g9
((ltRp330
sg17
I1
sg18
g325
sbsS'remember upload'
p331
(icommand_store_lib
Command
p332
(dp333
g8
g9
((ltRp334
sg11
S'remember'
p335
sg13
g14
sg15
g9
((ltRp336
sg17
I5
sg18
g331
sbsS'cd remember/'
p337
(icommand_store_lib
Command
p338
(dp339
g8
g9
((ltRp340
sg11
S'cd'
p341
sg13
g14
sg15
g9
((ltRp342
sg17
I2
sg18
g337
sbsS'clear'
p343
(icommand_store_lib
Command
p344
(dp345
g8
g9
((ltRp346
sg11
g343
sg13
g14
sg15
g9
((ltRp347
sg17
I1
sg18
g343
sbsS'cd Downloads/'
p348
(icommand_store_lib
Command
p349
(dp350
g8
g9
((ltRp351
sg11
S'cd'
p352
sg13
g14
sg15
g9
((ltRp353
sg17
I1
sg18
g348
sbsS'ls ~/Temp/save/'
p354
(icommand_store_lib
Command
p355
(dp356
g8
g9
((ltRp357
sg11
S'ls'
p358
sg13
g14
sg15
g9
((ltRp359
sg17
I1
sg18
g354
sbsS'cd Minzies/'
p360
(icommand_store_lib
Command
p361
(dp362
g8
g9
((ltRp363
sg11
S'cd'
p364
sg13
g14
sg15
g9
((ltRp365
sg17
I2
sg18
g360
sbsS'cd Pictures/'
p366
(icommand_store_lib
Command
p367
(dp368
g8
g9
((ltRp369
sg11
S'cd'
p370
sg13
g14
sg15
g9
((ltRp371
sg17
I1
sg18
g366
sbsS'cd Dropbox/'
p372
(icommand_store_lib
Command
p373
(dp374
g8
g9
((ltRp375
sg11
S'cd'
p376
sg13
g14
sg15
g9
((ltRp377
sg17
I2
sg18
g372
sbsS'cd archive_dumps/'
p378
(icommand_store_lib
Command
p379
(dp380
g8
g9
((ltRp381
sg11
S'cd'
p382
sg13
g14
sg15
g9
((ltRp383
sg17
I1
sg18
g378
sbsS'cd Movies/'
p384
(icommand_store_lib
Command
p385
(dp386
g8
g9
((ltRp387
sg11
S'cd'
p388
sg13
g14
sg15
g9
((ltRp389
sg17
I1
sg18
g384
sbsS'grep -rn "DynamicPickupsResponse*" *'
p390
(icommand_store_lib
Command
p391
(dp392
g8
g9
((ltRp393
sg11
S'grep'
p394
sg13
g14
sg15
g9
((ltRp395
sg17
I1
sg18
g390
sbsS'cd Work/'
p396
(icommand_store_lib
Command
p397
(dp398
g8
g9
((ltRp399
sg11
S'cd'
p400
sg13
g14
sg15
g9
((ltRp401
sg17
I2
sg18
g396
sbsS'coverage run remember_unittest.py'
p402
(icommand_store_lib
Command
p403
(dp404
g8
g9
((ltRp405
sg11
S'coverage'
p406
sg13
g14
sg15
g9
((ltRp407
sg17
I1
sg18
g402
sbsS'coverage html'
p408
(icommand_store_lib
Command
p409
(dp410
g8
g9
((ltRp411
sg11
S'coverage'
p412
sg13
g14
sg15
g9
((ltRp413
sg17
I1
sg18
g408
sbsS'cd ../../../..'
p414
(icommand_store_lib
Command
p415
(dp416
g8
g9
((ltRp417
sg11
S'cd'
p418
sg13
g14
sg15
g9
((ltRp419
sg17
I1
sg18
g414
sbsS'grep -rn -I @Shape *'
p420
(icommand_store_lib
Command
p421
(dp422
g8
g9
((ltRp423
sg11
S'grep'
p424
sg13
g14
sg15
g9
((ltRp425
sg17
I2
sg18
g420
sbsS'cd realtime'
p426
(icommand_store_lib
Command
p427
(dp428
g8
g9
((ltRp429
sg11
S'cd'
p430
sg13
g14
sg15
g9
((ltRp431
sg17
I1
sg18
g426
sbssb.